; Function Attrs: mustprogress nounwind uwtable
define dso_local void @_ZN4llvm24StripNonDebugSymbolsPass3runERNS_6ModuleERNS_15AnalysisManagerIS1_JEEE(ptr dead_on_unwind noalias writable sret(%"class.llvm::PreservedAnalyses") align 8 %0, ptr nocapture noundef nonnull readnone align 1 dereferenceable(1) %1, ptr noundef nonnull align 8 dereferenceable(857) %2, ptr nocapture noundef nonnull readnone align 8 dereferenceable(72) %3) local_unnamed_addr #0 align 2 {
  tail call fastcc void @_ZL16StripSymbolNamesRN4llvm6ModuleEb(ptr noundef nonnull align 8 dereferenceable(857) %2, i1 noundef zeroext true)
  %5 = getelementptr inbounds nuw i8, ptr %0, i64 32
  store ptr %5, ptr %0, align 8
  %6 = getelementptr inbounds nuw i8, ptr %0, i64 8
  store ptr %5, ptr %6, align 8
  %7 = getelementptr inbounds nuw i8, ptr %0, i64 16
  store i32 2, ptr %7, align 8
  %8 = getelementptr inbounds nuw i8, ptr %0, i64 20
  store i32 0, ptr %8, align 4
  %9 = getelementptr inbounds nuw i8, ptr %0, i64 24
  store i32 0, ptr %9, align 8
  %10 = getelementptr inbounds nuw i8, ptr %0, i64 48
  %11 = getelementptr inbounds i8, ptr %0, i64 80
  store ptr %11, ptr %10, align 8
  %12 = getelementptr inbounds i8, ptr %0, i64 56
  store ptr %11, ptr %12, align 8
  %13 = getelementptr inbounds i8, ptr %0, i64 64
  store i32 2, ptr %13, align 8
  %14 = getelementptr inbounds i8, ptr %0, i64 68
  store i32 0, ptr %14, align 4
  %15 = getelementptr inbounds i8, ptr %0, i64 72
  store i32 0, ptr %15, align 8
  tail call void @_ZN4llvm17PreservedAnalyses11preserveSetEPNS_14AnalysisSetKeyE(ptr noundef nonnull align 8 dereferenceable(96) %0, ptr noundef nonnull @_ZN4llvm11CFGAnalyses6SetKeyE)
  ret void
}